; Function Attrs: nounwind uwtable
define void @_ZdlPvSt11align_val_tRKSt9nothrow_t(ptr noundef %0, i64 noundef %1, ptr noundef readnone captures(none) %2) local_unnamed_addr #3 {
  %4 = ptrtoint ptr %0 to i64
  %5 = add i64 %4, -1
  %6 = and i64 %5, -4194304
  %7 = inttoptr i64 %6 to ptr
  %8 = icmp slt i64 %5, 4194304
  %9 = icmp eq i64 %6, 0
  %10 = or i1 %8, %9
  br i1 %10, label %mi_free_aligned.exit, label %11, !prof !17

11:                                               ; preds = %3
  %12 = tail call ptr @llvm.thread.pointer()
  %13 = ptrtoint ptr %12 to i64
  %14 = getelementptr inbounds nuw i8, ptr %7, i64 136
  %15 = load atomic i64, ptr %14 monotonic, align 8
  %16 = icmp eq i64 %15, %13
  %17 = sub i64 %4, %6
  %18 = getelementptr inbounds nuw i8, ptr %7, i64 144
  %19 = load i64, ptr %18, align 16, !tbaa !22
  %20 = lshr i64 %17, %19
  %21 = getelementptr inbounds nuw i8, ptr %7, i64 160
  %22 = getelementptr inbounds nuw [1 x %struct.mi_page_s], ptr %21, i64 0, i64 %20
  br i1 %16, label %23, label %37, !prof !8

23:                                               ; preds = %11
  %24 = getelementptr inbounds nuw i8, ptr %22, i64 6
  %25 = load i8, ptr %24, align 2, !tbaa !29
  %26 = icmp eq i8 %25, 0
  br i1 %26, label %27, label %36, !prof !8

27:                                               ; preds = %23
  %28 = getelementptr inbounds nuw i8, ptr %22, i64 16
  %29 = load ptr, ptr %28, align 16, !tbaa !30
  %30 = ptrtoint ptr %29 to i64
  store i64 %30, ptr %0, align 8, !tbaa !18
  store ptr %0, ptr %28, align 16, !tbaa !30
  %31 = getelementptr inbounds nuw i8, ptr %22, i64 24
  %32 = load i16, ptr %31, align 8, !tbaa !20
  %33 = add i16 %32, -1
  store i16 %33, ptr %31, align 8, !tbaa !20
  %34 = icmp eq i16 %33, 0
  br i1 %34, label %35, label %mi_free_aligned.exit, !prof !17

35:                                               ; preds = %27
  tail call void @_mi_page_retire(ptr noundef nonnull %22) #19
  br label %mi_free_aligned.exit

36:                                               ; preds = %23
  tail call fastcc void @mi_free_generic_local(ptr noundef nonnull %22, ptr noundef %0) #20
  br label %mi_free_aligned.exit

37:                                               ; preds = %11
  tail call fastcc void @mi_free_generic_mt(ptr noundef nonnull %22, ptr noundef nonnull %7, ptr noundef %0) #20
  br label %mi_free_aligned.exit

mi_free_aligned.exit:                             ; preds = %3, %27, %35, %36, %37
  ret void
}